; Function Attrs: mustprogress nofree norecurse nosync nounwind willreturn memory(read, inaccessiblemem: none) uwtable
define dso_local i64 @LLVMConstIntGetSExtValue(ptr noundef readonly captures(none) %0) local_unnamed_addr #14 {
  %2 = getelementptr inbounds nuw i8, ptr %0, i64 24
  %3 = getelementptr inbounds nuw i8, ptr %0, i64 32
  %4 = load i32, ptr %3, align 8
  %5 = icmp ult i32 %4, 65
  br i1 %5, label %6, label %13

6:                                                ; preds = %1
  %7 = load i64, ptr %2, align 8
  %8 = icmp eq i32 %4, 0
  %9 = sub nuw nsw i32 64, %4
  %10 = zext nneg i32 %9 to i64
  %11 = shl i64 %7, %10
  %12 = ashr exact i64 %11, %10
  %.0.i.i.i = select i1 %8, i64 0, i64 %12
  br label %_ZNK4llvm11ConstantInt12getSExtValueEv.exit

13:                                               ; preds = %1
  %14 = load ptr, ptr %2, align 8
  %15 = load i64, ptr %14, align 8
  br label %_ZNK4llvm11ConstantInt12getSExtValueEv.exit

_ZNK4llvm11ConstantInt12getSExtValueEv.exit:      ; preds = %6, %13
  %.0.i.i = phi i64 [ %.0.i.i.i, %6 ], [ %15, %13 ]
  ret i64 %.0.i.i
}